target datalayout = "e-m:e-p270:32:32-p271:32:32-p272:64:64-i64:64-i128:128-f80:128-n8:16:32:64-S128"
target triple = "x86_64-pc-linux-gnu"

%"class.cv::Subdiv2D" = type { %"class.std::vector", %"class.std::vector.0", i32, i32, i8, i32, %"class.cv::Point_", %"class.cv::Point_" }
%"class.std::vector" = type { %"struct.std::_Vector_base" }
%"struct.std::_Vector_base" = type { %"struct.std::_Vector_base<cv::Subdiv2D::Vertex, std::allocator<cv::Subdiv2D::Vertex>>::_Vector_impl" }
%"struct.std::_Vector_base<cv::Subdiv2D::Vertex, std::allocator<cv::Subdiv2D::Vertex>>::_Vector_impl" = type { %"struct.std::_Vector_base<cv::Subdiv2D::Vertex, std::allocator<cv::Subdiv2D::Vertex>>::_Vector_impl_data" }
%"struct.std::_Vector_base<cv::Subdiv2D::Vertex, std::allocator<cv::Subdiv2D::Vertex>>::_Vector_impl_data" = type { ptr, ptr, ptr }
%"class.std::vector.0" = type { %"struct.std::_Vector_base.1" }
%"struct.std::_Vector_base.1" = type { %"struct.std::_Vector_base<cv::Subdiv2D::QuadEdge, std::allocator<cv::Subdiv2D::QuadEdge>>::_Vector_impl" }
%"struct.std::_Vector_base<cv::Subdiv2D::QuadEdge, std::allocator<cv::Subdiv2D::QuadEdge>>::_Vector_impl" = type { %"struct.std::_Vector_base<cv::Subdiv2D::QuadEdge, std::allocator<cv::Subdiv2D::QuadEdge>>::_Vector_impl_data" }
%"struct.std::_Vector_base<cv::Subdiv2D::QuadEdge, std::allocator<cv::Subdiv2D::QuadEdge>>::_Vector_impl_data" = type { ptr, ptr, ptr }
%"class.cv::Point_" = type { float, float }
%"struct.cv::Subdiv2D::QuadEdge" = type { [4 x i32], [4 x i32] }

; Function Attrs: inlinehint mustprogress nounwind uwtable
define linkonce_odr void @_ZSt4swapIiENSt9enable_ifIXsr6__and_ISt6__not_ISt15__is_tuple_likeIT_EESt21is_move_constructibleIS3_ESt18is_move_assignableIS3_EEE5valueEvE4typeERS3_SC_(ptr noundef nonnull align 4 dereferenceable(4) %0, ptr noundef nonnull align 4 dereferenceable(4) %1) #5 comdat {
  %3 = alloca ptr, align 8
  %4 = alloca ptr, align 8
  %5 = alloca i32, align 4
  store ptr %0, ptr %3, align 8, !tbaa !27
  store ptr %1, ptr %4, align 8, !tbaa !27
  call void @llvm.lifetime.start.p0(i64 4, ptr %5) #20
  %6 = load ptr, ptr %3, align 8, !tbaa !27
  %7 = load i32, ptr %6, align 4, !tbaa !8
  store i32 %7, ptr %5, align 4, !tbaa !8
  %8 = load ptr, ptr %4, align 8, !tbaa !27
  %9 = load i32, ptr %8, align 4, !tbaa !8
  %10 = load ptr, ptr %3, align 8, !tbaa !27
  store i32 %9, ptr %10, align 4, !tbaa !8
  %11 = load i32, ptr %5, align 4, !tbaa !8
  %12 = load ptr, ptr %4, align 8, !tbaa !27
  store i32 %11, ptr %12, align 4, !tbaa !8
  call void @llvm.lifetime.end.p0(i64 4, ptr %5) #20
  ret void
}

; Function Attrs: mustprogress nounwind uwtable
define noundef i32 @_ZNK2cv8Subdiv2D10rotateEdgeEii(ptr noundef nonnull align 8 dereferenceable(80) %0, i32 noundef %1, i32 noundef %2) #0 align 2 {
  %4 = alloca ptr, align 8
  %5 = alloca i32, align 4
  %6 = alloca i32, align 4
  store ptr %0, ptr %4, align 8, !tbaa !3
  store i32 %1, ptr %5, align 4, !tbaa !8
  store i32 %2, ptr %6, align 4, !tbaa !8
  %7 = load i32, ptr %5, align 4, !tbaa !8
  %8 = and i32 %7, -4
  %9 = load i32, ptr %5, align 4, !tbaa !8
  %10 = load i32, ptr %6, align 4, !tbaa !8
  %11 = add nsw i32 %9, %10
  %12 = and i32 %11, 3
  %13 = add nsw i32 %8, %12
  ret i32 %13
}

; Function Attrs: mustprogress nounwind uwtable
define linkonce_odr hidden noundef nonnull align 4 dereferenceable(32) ptr @_ZNKSt6vectorIN2cv8Subdiv2D8QuadEdgeESaIS2_EEixEm(ptr noundef nonnull align 8 dereferenceable(24) %0, i64 noundef %1) #0 comdat align 2 {
  %3 = alloca ptr, align 8
  %4 = alloca i64, align 8
  store ptr %0, ptr %3, align 8, !tbaa !10
  store i64 %1, ptr %4, align 8, !tbaa !12
  %5 = load ptr, ptr %3, align 8
  %6 = getelementptr inbounds nuw %"struct.std::_Vector_base.1", ptr %5, i32 0, i32 0
  %7 = getelementptr inbounds nuw %"struct.std::_Vector_base<cv::Subdiv2D::QuadEdge, std::allocator<cv::Subdiv2D::QuadEdge>>::_Vector_impl_data", ptr %6, i32 0, i32 0
  %8 = load ptr, ptr %7, align 8, !tbaa !14
  %9 = load i64, ptr %4, align 8, !tbaa !12
  %10 = getelementptr inbounds nuw %"struct.cv::Subdiv2D::QuadEdge", ptr %8, i64 %9
  ret ptr %10
}

; Function Attrs: mustprogress nounwind uwtable
define linkonce_odr hidden noundef nonnull align 4 dereferenceable(32) ptr @_ZNSt6vectorIN2cv8Subdiv2D8QuadEdgeESaIS2_EEixEm(ptr noundef nonnull align 8 dereferenceable(24) %0, i64 noundef %1) #0 comdat align 2 {
  %3 = alloca ptr, align 8
  %4 = alloca i64, align 8
  store ptr %0, ptr %3, align 8, !tbaa !10
  store i64 %1, ptr %4, align 8, !tbaa !12
  %5 = load ptr, ptr %3, align 8
  %6 = getelementptr inbounds nuw %"struct.std::_Vector_base.1", ptr %5, i32 0, i32 0
  %7 = getelementptr inbounds nuw %"struct.std::_Vector_base<cv::Subdiv2D::QuadEdge, std::allocator<cv::Subdiv2D::QuadEdge>>::_Vector_impl_data", ptr %6, i32 0, i32 0
  %8 = load ptr, ptr %7, align 8, !tbaa !14
  %9 = load i64, ptr %4, align 8, !tbaa !12
  %10 = getelementptr inbounds nuw %"struct.cv::Subdiv2D::QuadEdge", ptr %8, i64 %9
  ret ptr %10
}

; Function Attrs: mustprogress nounwind uwtable
define noundef i32 @_ZNK2cv8Subdiv2D7symEdgeEi(ptr noundef nonnull align 8 dereferenceable(80) %0, i32 noundef %1) #0 align 2 {
  %3 = alloca ptr, align 8
  %4 = alloca i32, align 4
  store ptr %0, ptr %3, align 8, !tbaa !3
  store i32 %1, ptr %4, align 4, !tbaa !8
  %5 = load i32, ptr %4, align 4, !tbaa !8
  %6 = xor i32 %5, 2
  ret i32 %6
}

; Function Attrs: mustprogress nounwind uwtable
define void @_ZN2cv8Subdiv2D6spliceEii(ptr noundef nonnull align 8 dereferenceable(80) %0, i32 noundef %1, i32 noundef %2) #0 align 2 {
  %4 = alloca ptr, align 8
  %5 = alloca i32, align 4
  %6 = alloca i32, align 4
  %7 = alloca ptr, align 8
  %8 = alloca ptr, align 8
  %9 = alloca i32, align 4
  %10 = alloca i32, align 4
  %11 = alloca ptr, align 8
  %12 = alloca ptr, align 8
  store ptr %0, ptr %4, align 8, !tbaa !3
  store i32 %1, ptr %5, align 4, !tbaa !8
  store i32 %2, ptr %6, align 4, !tbaa !8
  %13 = load ptr, ptr %4, align 8
  call void @llvm.lifetime.start.p0(i64 8, ptr %7) #20
  %14 = getelementptr inbounds nuw %"class.cv::Subdiv2D", ptr %13, i32 0, i32 1
  %15 = load i32, ptr %5, align 4, !tbaa !8
  %16 = ashr i32 %15, 2
  %17 = sext i32 %16 to i64
  %18 = call noundef nonnull align 4 dereferenceable(32) ptr @_ZNSt6vectorIN2cv8Subdiv2D8QuadEdgeESaIS2_EEixEm(ptr noundef nonnull align 8 dereferenceable(24) %14, i64 noundef %17) #20
  %19 = getelementptr inbounds nuw %"struct.cv::Subdiv2D::QuadEdge", ptr %18, i32 0, i32 0
  %20 = load i32, ptr %5, align 4, !tbaa !8
  %21 = and i32 %20, 3
  %22 = sext i32 %21 to i64
  %23 = getelementptr inbounds [4 x i32], ptr %19, i64 0, i64 %22
  store ptr %23, ptr %7, align 8, !tbaa !27
  call void @llvm.lifetime.start.p0(i64 8, ptr %8) #20
  %24 = getelementptr inbounds nuw %"class.cv::Subdiv2D", ptr %13, i32 0, i32 1
  %25 = load i32, ptr %6, align 4, !tbaa !8
  %26 = ashr i32 %25, 2
  %27 = sext i32 %26 to i64
  %28 = call noundef nonnull align 4 dereferenceable(32) ptr @_ZNSt6vectorIN2cv8Subdiv2D8QuadEdgeESaIS2_EEixEm(ptr noundef nonnull align 8 dereferenceable(24) %24, i64 noundef %27) #20
  %29 = getelementptr inbounds nuw %"struct.cv::Subdiv2D::QuadEdge", ptr %28, i32 0, i32 0
  %30 = load i32, ptr %6, align 4, !tbaa !8
  %31 = and i32 %30, 3
  %32 = sext i32 %31 to i64
  %33 = getelementptr inbounds [4 x i32], ptr %29, i64 0, i64 %32
  store ptr %33, ptr %8, align 8, !tbaa !27
  call void @llvm.lifetime.start.p0(i64 4, ptr %9) #20
  %34 = load ptr, ptr %7, align 8, !tbaa !27
  %35 = load i32, ptr %34, align 4, !tbaa !8
  %36 = call noundef i32 @_ZNK2cv8Subdiv2D10rotateEdgeEii(ptr noundef nonnull align 8 dereferenceable(80) %13, i32 noundef %35, i32 noundef 1)
  store i32 %36, ptr %9, align 4, !tbaa !8
  call void @llvm.lifetime.start.p0(i64 4, ptr %10) #20
  %37 = load ptr, ptr %8, align 8, !tbaa !27
  %38 = load i32, ptr %37, align 4, !tbaa !8
  %39 = call noundef i32 @_ZNK2cv8Subdiv2D10rotateEdgeEii(ptr noundef nonnull align 8 dereferenceable(80) %13, i32 noundef %38, i32 noundef 1)
  store i32 %39, ptr %10, align 4, !tbaa !8
  call void @llvm.lifetime.start.p0(i64 8, ptr %11) #20
  %40 = getelementptr inbounds nuw %"class.cv::Subdiv2D", ptr %13, i32 0, i32 1
  %41 = load i32, ptr %9, align 4, !tbaa !8
  %42 = ashr i32 %41, 2
  %43 = sext i32 %42 to i64
  %44 = call noundef nonnull align 4 dereferenceable(32) ptr @_ZNSt6vectorIN2cv8Subdiv2D8QuadEdgeESaIS2_EEixEm(ptr noundef nonnull align 8 dereferenceable(24) %40, i64 noundef %43) #20
  %45 = getelementptr inbounds nuw %"struct.cv::Subdiv2D::QuadEdge", ptr %44, i32 0, i32 0
  %46 = load i32, ptr %9, align 4, !tbaa !8
  %47 = and i32 %46, 3
  %48 = sext i32 %47 to i64
  %49 = getelementptr inbounds [4 x i32], ptr %45, i64 0, i64 %48
  store ptr %49, ptr %11, align 8, !tbaa !27
  call void @llvm.lifetime.start.p0(i64 8, ptr %12) #20
  %50 = getelementptr inbounds nuw %"class.cv::Subdiv2D", ptr %13, i32 0, i32 1
  %51 = load i32, ptr %10, align 4, !tbaa !8
  %52 = ashr i32 %51, 2
  %53 = sext i32 %52 to i64
  %54 = call noundef nonnull align 4 dereferenceable(32) ptr @_ZNSt6vectorIN2cv8Subdiv2D8QuadEdgeESaIS2_EEixEm(ptr noundef nonnull align 8 dereferenceable(24) %50, i64 noundef %53) #20
  %55 = getelementptr inbounds nuw %"struct.cv::Subdiv2D::QuadEdge", ptr %54, i32 0, i32 0
  %56 = load i32, ptr %10, align 4, !tbaa !8
  %57 = and i32 %56, 3
  %58 = sext i32 %57 to i64
  %59 = getelementptr inbounds [4 x i32], ptr %55, i64 0, i64 %58
  store ptr %59, ptr %12, align 8, !tbaa !27
  %60 = load ptr, ptr %7, align 8, !tbaa !27
  %61 = load ptr, ptr %8, align 8, !tbaa !27
  call void @_ZSt4swapIiENSt9enable_ifIXsr6__and_ISt6__not_ISt15__is_tuple_likeIT_EESt21is_move_constructibleIS3_ESt18is_move_assignableIS3_EEE5valueEvE4typeERS3_SC_(ptr noundef nonnull align 4 dereferenceable(4) %60, ptr noundef nonnull align 4 dereferenceable(4) %61) #20
  %62 = load ptr, ptr %11, align 8, !tbaa !27
  %63 = load ptr, ptr %12, align 8, !tbaa !27
  call void @_ZSt4swapIiENSt9enable_ifIXsr6__and_ISt6__not_ISt15__is_tuple_likeIT_EESt21is_move_constructibleIS3_ESt18is_move_assignableIS3_EEE5valueEvE4typeERS3_SC_(ptr noundef nonnull align 4 dereferenceable(4) %62, ptr noundef nonnull align 4 dereferenceable(4) %63) #20
  call void @llvm.lifetime.end.p0(i64 8, ptr %12) #20
  call void @llvm.lifetime.end.p0(i64 8, ptr %11) #20
  call void @llvm.lifetime.end.p0(i64 4, ptr %10) #20
  call void @llvm.lifetime.end.p0(i64 4, ptr %9) #20
  call void @llvm.lifetime.end.p0(i64 8, ptr %8) #20
  call void @llvm.lifetime.end.p0(i64 8, ptr %7) #20
  ret void
}

; Function Attrs: mustprogress nounwind uwtable
define noundef i32 @_ZNK2cv8Subdiv2D7getEdgeEii(ptr noundef nonnull align 8 dereferenceable(80) %0, i32 noundef %1, i32 noundef %2) #0 align 2 {
  %4 = alloca ptr, align 8
  %5 = alloca i32, align 4
  %6 = alloca i32, align 4
  store ptr %0, ptr %4, align 8, !tbaa !3
  store i32 %1, ptr %5, align 4, !tbaa !8
  store i32 %2, ptr %6, align 4, !tbaa !8
  %7 = load ptr, ptr %4, align 8
  %8 = getelementptr inbounds nuw %"class.cv::Subdiv2D", ptr %7, i32 0, i32 1
  %9 = load i32, ptr %5, align 4, !tbaa !8
  %10 = ashr i32 %9, 2
  %11 = sext i32 %10 to i64
  %12 = call noundef nonnull align 4 dereferenceable(32) ptr @_ZNKSt6vectorIN2cv8Subdiv2D8QuadEdgeESaIS2_EEixEm(ptr noundef nonnull align 8 dereferenceable(24) %8, i64 noundef %11) #20
  %13 = getelementptr inbounds nuw %"struct.cv::Subdiv2D::QuadEdge", ptr %12, i32 0, i32 0
  %14 = load i32, ptr %5, align 4, !tbaa !8
  %15 = load i32, ptr %6, align 4, !tbaa !8
  %16 = add nsw i32 %14, %15
  %17 = and i32 %16, 3
  %18 = sext i32 %17 to i64
  %19 = getelementptr inbounds [4 x i32], ptr %13, i64 0, i64 %18
  %20 = load i32, ptr %19, align 4, !tbaa !8
  store i32 %20, ptr %5, align 4, !tbaa !8
  %21 = load i32, ptr %5, align 4, !tbaa !8
  %22 = and i32 %21, -4
  %23 = load i32, ptr %5, align 4, !tbaa !8
  %24 = load i32, ptr %6, align 4, !tbaa !8
  %25 = ashr i32 %24, 4
  %26 = add nsw i32 %23, %25
  %27 = and i32 %26, 3
  %28 = add nsw i32 %22, %27
  ret i32 %28
}

; Function Attrs: mustprogress nounwind uwtable
define void @_ZN2cv8Subdiv2D10deleteEdgeEi(ptr noundef nonnull align 8 dereferenceable(80) %0, i32 noundef %1) #0 align 2 {
  %3 = alloca ptr, align 8
  %4 = alloca i32, align 4
  %5 = alloca i32, align 4
  store ptr %0, ptr %3, align 8, !tbaa !3
  store i32 %1, ptr %4, align 4, !tbaa !8
  %6 = load ptr, ptr %3, align 8
  %7 = load i32, ptr %4, align 4, !tbaa !8
  %8 = load i32, ptr %4, align 4, !tbaa !8
  %9 = call noundef i32 @_ZNK2cv8Subdiv2D7getEdgeEii(ptr noundef nonnull align 8 dereferenceable(80) %6, i32 noundef %8, i32 noundef 17)
  call void @_ZN2cv8Subdiv2D6spliceEii(ptr noundef nonnull align 8 dereferenceable(80) %6, i32 noundef %7, i32 noundef %9)
  call void @llvm.lifetime.start.p0(i64 4, ptr %5) #20
  %10 = load i32, ptr %4, align 4, !tbaa !8
  %11 = call noundef i32 @_ZNK2cv8Subdiv2D7symEdgeEi(ptr noundef nonnull align 8 dereferenceable(80) %6, i32 noundef %10)
  store i32 %11, ptr %5, align 4, !tbaa !8
  %12 = load i32, ptr %5, align 4, !tbaa !8
  %13 = load i32, ptr %5, align 4, !tbaa !8
  %14 = call noundef i32 @_ZNK2cv8Subdiv2D7getEdgeEii(ptr noundef nonnull align 8 dereferenceable(80) %6, i32 noundef %13, i32 noundef 17)
  call void @_ZN2cv8Subdiv2D6spliceEii(ptr noundef nonnull align 8 dereferenceable(80) %6, i32 noundef %12, i32 noundef %14)
  %15 = load i32, ptr %4, align 4, !tbaa !8
  %16 = ashr i32 %15, 2
  store i32 %16, ptr %4, align 4, !tbaa !8
  %17 = getelementptr inbounds nuw %"class.cv::Subdiv2D", ptr %6, i32 0, i32 1
  %18 = load i32, ptr %4, align 4, !tbaa !8
  %19 = sext i32 %18 to i64
  %20 = call noundef nonnull align 4 dereferenceable(32) ptr @_ZNSt6vectorIN2cv8Subdiv2D8QuadEdgeESaIS2_EEixEm(ptr noundef nonnull align 8 dereferenceable(24) %17, i64 noundef %19) #20
  %21 = getelementptr inbounds nuw %"struct.cv::Subdiv2D::QuadEdge", ptr %20, i32 0, i32 0
  %22 = getelementptr inbounds [4 x i32], ptr %21, i64 0, i64 0
  store i32 0, ptr %22, align 4, !tbaa !8
  %23 = getelementptr inbounds nuw %"class.cv::Subdiv2D", ptr %6, i32 0, i32 2
  %24 = load i32, ptr %23, align 8, !tbaa !41
  %25 = getelementptr inbounds nuw %"class.cv::Subdiv2D", ptr %6, i32 0, i32 1
  %26 = load i32, ptr %4, align 4, !tbaa !8
  %27 = sext i32 %26 to i64
  %28 = call noundef nonnull align 4 dereferenceable(32) ptr @_ZNSt6vectorIN2cv8Subdiv2D8QuadEdgeESaIS2_EEixEm(ptr noundef nonnull align 8 dereferenceable(24) %25, i64 noundef %27) #20
  %29 = getelementptr inbounds nuw %"struct.cv::Subdiv2D::QuadEdge", ptr %28, i32 0, i32 0
  %30 = getelementptr inbounds [4 x i32], ptr %29, i64 0, i64 1
  store i32 %24, ptr %30, align 4, !tbaa !8
  %31 = load i32, ptr %4, align 4, !tbaa !8
  %32 = getelementptr inbounds nuw %"class.cv::Subdiv2D", ptr %6, i32 0, i32 2
  store i32 %31, ptr %32, align 8, !tbaa !41
  call void @llvm.lifetime.end.p0(i64 4, ptr %5) #20
  ret void
}