; Function Attrs: mustprogress nofree norecurse nosync nounwind willreturn memory(readwrite, inaccessiblemem: none) uwtable
define void @_ZN2cv8Subdiv2D10deleteEdgeEi(ptr noundef nonnull align 8 captures(none) dereferenceable(80) %0, i32 noundef %1) local_unnamed_addr #11 align 2 {
  %3 = getelementptr inbounds nuw i8, ptr %0, i64 24
  %4 = ashr i32 %1, 2
  %5 = sext i32 %4 to i64
  %6 = load ptr, ptr %3, align 8, !tbaa !3
  %7 = getelementptr inbounds nuw %"struct.cv::Subdiv2D::QuadEdge", ptr %6, i64 %5
  %8 = add i32 %1, 1
  %9 = and i32 %8, 3
  %10 = zext nneg i32 %9 to i64
  %11 = getelementptr inbounds nuw [4 x i32], ptr %7, i64 0, i64 %10
  %12 = load i32, ptr %11, align 4, !tbaa !9
  %13 = add i32 %12, 1
  %14 = and i32 %13, 3
  %15 = and i32 %1, 3
  %16 = zext nneg i32 %15 to i64
  %17 = getelementptr inbounds nuw [4 x i32], ptr %7, i64 0, i64 %16
  %18 = ashr i32 %12, 2
  %19 = sext i32 %18 to i64
  %20 = getelementptr inbounds nuw %"struct.cv::Subdiv2D::QuadEdge", ptr %6, i64 %19
  %21 = zext nneg i32 %14 to i64
  %22 = getelementptr inbounds nuw [4 x i32], ptr %20, i64 0, i64 %21
  %23 = load i32, ptr %17, align 4, !tbaa !9
  %24 = add nsw i32 %23, 1
  %25 = and i32 %24, 3
  %26 = load i32, ptr %22, align 4, !tbaa !9
  %27 = add nsw i32 %26, 1
  %28 = and i32 %27, 3
  %29 = ashr i32 %23, 2
  %30 = sext i32 %29 to i64
  %31 = getelementptr inbounds nuw %"struct.cv::Subdiv2D::QuadEdge", ptr %6, i64 %30
  %32 = zext nneg i32 %25 to i64
  %33 = getelementptr inbounds nuw [4 x i32], ptr %31, i64 0, i64 %32
  %34 = ashr i32 %26, 2
  %35 = sext i32 %34 to i64
  %36 = getelementptr inbounds nuw %"struct.cv::Subdiv2D::QuadEdge", ptr %6, i64 %35
  %37 = zext nneg i32 %28 to i64
  %38 = getelementptr inbounds nuw [4 x i32], ptr %36, i64 0, i64 %37
  store i32 %26, ptr %17, align 4, !tbaa !9
  store i32 %23, ptr %22, align 4, !tbaa !9
  %39 = load i32, ptr %33, align 4, !tbaa !9
  %40 = load i32, ptr %38, align 4, !tbaa !9
  store i32 %40, ptr %33, align 4, !tbaa !9
  store i32 %39, ptr %38, align 4, !tbaa !9
  %41 = xor i32 %1, 2
  %42 = add i32 %41, 1
  %43 = and i32 %42, 3
  %44 = zext nneg i32 %43 to i64
  %45 = getelementptr inbounds nuw [4 x i32], ptr %7, i64 0, i64 %44
  %46 = load i32, ptr %45, align 4, !tbaa !9
  %47 = add i32 %46, 1
  %48 = and i32 %47, 3
  %49 = and i32 %41, 3
  %50 = zext nneg i32 %49 to i64
  %51 = getelementptr inbounds nuw [4 x i32], ptr %7, i64 0, i64 %50
  %52 = ashr i32 %46, 2
  %53 = sext i32 %52 to i64
  %54 = getelementptr inbounds nuw %"struct.cv::Subdiv2D::QuadEdge", ptr %6, i64 %53
  %55 = zext nneg i32 %48 to i64
  %56 = getelementptr inbounds nuw [4 x i32], ptr %54, i64 0, i64 %55
  %57 = load i32, ptr %51, align 4, !tbaa !9
  %58 = add nsw i32 %57, 1
  %59 = and i32 %58, 3
  %60 = load i32, ptr %56, align 4, !tbaa !9
  %61 = add nsw i32 %60, 1
  %62 = and i32 %61, 3
  %63 = ashr i32 %57, 2
  %64 = sext i32 %63 to i64
  %65 = getelementptr inbounds nuw %"struct.cv::Subdiv2D::QuadEdge", ptr %6, i64 %64
  %66 = zext nneg i32 %59 to i64
  %67 = getelementptr inbounds nuw [4 x i32], ptr %65, i64 0, i64 %66
  %68 = ashr i32 %60, 2
  %69 = sext i32 %68 to i64
  %70 = getelementptr inbounds nuw %"struct.cv::Subdiv2D::QuadEdge", ptr %6, i64 %69
  %71 = zext nneg i32 %62 to i64
  %72 = getelementptr inbounds nuw [4 x i32], ptr %70, i64 0, i64 %71
  store i32 %60, ptr %51, align 4, !tbaa !9
  store i32 %57, ptr %56, align 4, !tbaa !9
  %73 = load i32, ptr %67, align 4, !tbaa !9
  %74 = load i32, ptr %72, align 4, !tbaa !9
  store i32 %74, ptr %67, align 4, !tbaa !9
  store i32 %73, ptr %72, align 4, !tbaa !9
  store i32 0, ptr %7, align 4, !tbaa !9
  %75 = getelementptr inbounds nuw i8, ptr %0, i64 48
  %76 = load i32, ptr %75, align 8, !tbaa !47
  %77 = getelementptr inbounds nuw i8, ptr %7, i64 4
  store i32 %76, ptr %77, align 4, !tbaa !9
  store i32 %4, ptr %75, align 8, !tbaa !47
  ret void
}